target datalayout = "e-m:e-p270:32:32-p271:32:32-p272:64:64-i64:64-i128:128-f80:128-n8:16:32:64-S128"
target triple = "x86_64-pc-linux-gnu"

%struct._address = type { i32, i32, ptr, ptr }
%struct.conversation_element = type { i32, %union.anon }
%union.anon = type { %struct._address }
%struct.conversation = type { ptr, ptr, ptr, i32, i32, i32, ptr, ptr, i32, ptr }

@conversation_hashtable_exact_addr_port = internal global ptr null, align 8
@conversation_hashtable_exact_addr = internal global ptr null, align 8
@conversation_hashtable_no_addr2 = internal global ptr null, align 8
@conversation_hashtable_no_port2 = internal global ptr null, align 8
@conversation_hashtable_no_addr2_or_port2 = internal global ptr null, align 8
@new_index = internal global i32 0, align 4
@.str.1 = private unnamed_addr constant [20 x i8] c"epan/conversation.c\00", align 1
@.str.3 = private unnamed_addr constant [34 x i8] c"%s:%u: failed assertion \22%s\22 (%s)\00", align 1
@.str.4 = private unnamed_addr constant [24 x i8] c"!(options & 0xFFFF0000)\00", align 1
@.str.5 = private unnamed_addr constant [57 x i8] c"Use NO_ADDR2 and/or NO_PORT2 or NO_PORT2_FORCE as option\00", align 1

; Function Attrs: inlinehint null_pointer_is_valid sspstrong uwtable
define internal void @alloc_address_wmem(ptr noundef %0, ptr noundef %1, i32 noundef %2, i32 noundef %3, ptr noundef %4) #7 {
  %6 = alloca ptr, align 8
  %7 = alloca ptr, align 8
  %8 = alloca i32, align 4
  %9 = alloca i32, align 4
  %10 = alloca ptr, align 8
  store ptr %0, ptr %6, align 8
  store ptr %1, ptr %7, align 8
  store i32 %2, ptr %8, align 4
  store i32 %3, ptr %9, align 4
  store ptr %4, ptr %10, align 8
  br label %11

11:                                               ; preds = %5
  br label %12

12:                                               ; preds = %11
  %13 = load ptr, ptr %7, align 8
  call void @clear_address(ptr noundef %13)
  %14 = load i32, ptr %8, align 4
  %15 = load ptr, ptr %7, align 8
  %16 = getelementptr inbounds nuw %struct._address, ptr %15, i32 0, i32 0
  store i32 %14, ptr %16, align 8
  %17 = load i32, ptr %9, align 4
  %18 = icmp eq i32 %17, 0
  br i1 %18, label %19, label %22

19:                                               ; preds = %12
  br label %20

20:                                               ; preds = %19
  br label %21

21:                                               ; preds = %20
  br label %39

22:                                               ; preds = %12
  br label %23

23:                                               ; preds = %22
  br label %24

24:                                               ; preds = %23
  br label %25

25:                                               ; preds = %24
  br label %26

26:                                               ; preds = %25
  %27 = load ptr, ptr %6, align 8
  %28 = load ptr, ptr %10, align 8
  %29 = load i32, ptr %9, align 4
  %30 = sext i32 %29 to i64
  %31 = call ptr @wmem_memdup(ptr noundef %27, ptr noundef %28, i64 noundef %30) #15
  %32 = load ptr, ptr %7, align 8
  %33 = getelementptr inbounds nuw %struct._address, ptr %32, i32 0, i32 3
  store ptr %31, ptr %33, align 8
  %34 = load ptr, ptr %7, align 8
  %35 = getelementptr inbounds nuw %struct._address, ptr %34, i32 0, i32 2
  store ptr %31, ptr %35, align 8
  %36 = load i32, ptr %9, align 4
  %37 = load ptr, ptr %7, align 8
  %38 = getelementptr inbounds nuw %struct._address, ptr %37, i32 0, i32 1
  store i32 %36, ptr %38, align 4
  br label %39

39:                                               ; preds = %26, %21
  ret void
}

; Function Attrs: inlinehint nounwind null_pointer_is_valid sspstrong uwtable
define internal void @clear_address(ptr noundef %0) #9 {
  %2 = alloca ptr, align 8
  store ptr %0, ptr %2, align 8
  %3 = load ptr, ptr %2, align 8
  %4 = getelementptr inbounds nuw %struct._address, ptr %3, i32 0, i32 0
  store i32 0, ptr %4, align 8
  %5 = load ptr, ptr %2, align 8
  %6 = getelementptr inbounds nuw %struct._address, ptr %5, i32 0, i32 1
  store i32 0, ptr %6, align 4
  %7 = load ptr, ptr %2, align 8
  %8 = getelementptr inbounds nuw %struct._address, ptr %7, i32 0, i32 2
  store ptr null, ptr %8, align 8
  %9 = load ptr, ptr %2, align 8
  %10 = getelementptr inbounds nuw %struct._address, ptr %9, i32 0, i32 3
  store ptr null, ptr %10, align 8
  ret void
}

; Function Attrs: inlinehint null_pointer_is_valid sspstrong uwtable
define internal void @copy_address_wmem(ptr noundef %0, ptr noundef %1, ptr noundef %2) #7 {
  %4 = alloca ptr, align 8
  %5 = alloca ptr, align 8
  %6 = alloca ptr, align 8
  store ptr %0, ptr %4, align 8
  store ptr %1, ptr %5, align 8
  store ptr %2, ptr %6, align 8
  %7 = load ptr, ptr %4, align 8
  %8 = load ptr, ptr %5, align 8
  %9 = load ptr, ptr %6, align 8
  %10 = getelementptr inbounds nuw %struct._address, ptr %9, i32 0, i32 0
  %11 = load i32, ptr %10, align 8
  %12 = load ptr, ptr %6, align 8
  %13 = getelementptr inbounds nuw %struct._address, ptr %12, i32 0, i32 1
  %14 = load i32, ptr %13, align 4
  %15 = load ptr, ptr %6, align 8
  %16 = getelementptr inbounds nuw %struct._address, ptr %15, i32 0, i32 2
  %17 = load ptr, ptr %16, align 8
  call void @alloc_address_wmem(ptr noundef %7, ptr noundef %8, i32 noundef %11, i32 noundef %14, ptr noundef %17)
  ret void
}

; Function Attrs: null_pointer_is_valid sspstrong uwtable
define ptr @conversation_new(i32 noundef %0, ptr noundef %1, ptr noundef %2, i32 noundef %3, i32 noundef %4, i32 noundef %5, i32 noundef %6) #0 {
  %8 = alloca i32, align 4
  %9 = alloca ptr, align 8
  %10 = alloca ptr, align 8
  %11 = alloca i32, align 4
  %12 = alloca i32, align 4
  %13 = alloca i32, align 4
  %14 = alloca i32, align 4
  %15 = alloca ptr, align 8
  %16 = alloca ptr, align 8
  %17 = alloca ptr, align 8
  %18 = alloca i64, align 8
  %19 = alloca i64, align 8
  %20 = alloca i64, align 8
  store i32 %0, ptr %8, align 4
  store ptr %1, ptr %9, align 8
  store ptr %2, ptr %10, align 8
  store i32 %3, ptr %11, align 4
  store i32 %4, ptr %12, align 4
  store i32 %5, ptr %13, align 4
  store i32 %6, ptr %14, align 4
  call void @llvm.lifetime.start.p0(i64 8, ptr %15) #12
  call void @llvm.lifetime.start.p0(i64 8, ptr %16) #12
  store ptr null, ptr %16, align 8
  %21 = load i32, ptr %14, align 4
  %22 = and i32 %21, -65536
  %23 = icmp ne i32 %22, 0
  br i1 %23, label %25, label %24

24:                                               ; preds = %7
  br label %27

25:                                               ; preds = %7
  call void (ptr, ...) @proto_report_dissector_bug(ptr noundef @.str.3, ptr noundef @.str.1, i32 noundef 920, ptr noundef @.str.4, ptr noundef @.str.5) #13
  unreachable

26:                                               ; No predecessors!
  br label %27

27:                                               ; preds = %26, %24
  call void @llvm.lifetime.start.p0(i64 8, ptr %17) #12
  %28 = call ptr @wmem_file_scope()
  %29 = call noalias ptr @wmem_alloc(ptr noundef %28, i64 noundef 160) #16
  store ptr %29, ptr %17, align 8
  call void @llvm.lifetime.start.p0(i64 8, ptr %18) #12
  store i64 0, ptr %18, align 8
  call void @llvm.lifetime.start.p0(i64 8, ptr %19) #12
  store i64 0, ptr %19, align 8
  call void @llvm.lifetime.start.p0(i64 8, ptr %20) #12
  %30 = load ptr, ptr %17, align 8
  %31 = getelementptr %struct.conversation_element, ptr %30, i64 0
  %32 = getelementptr inbounds nuw %struct.conversation_element, ptr %31, i32 0, i32 0
  store i32 1, ptr %32, align 8
  %33 = load ptr, ptr %9, align 8
  %34 = icmp ne ptr %33, null
  br i1 %34, label %35, label %41

35:                                               ; preds = %27
  %36 = call ptr @wmem_file_scope()
  %37 = load ptr, ptr %17, align 8
  %38 = getelementptr %struct.conversation_element, ptr %37, i64 0
  %39 = getelementptr inbounds nuw %struct.conversation_element, ptr %38, i32 0, i32 1
  %40 = load ptr, ptr %9, align 8
  call void @copy_address_wmem(ptr noundef %36, ptr noundef %39, ptr noundef %40)
  br label %45

41:                                               ; preds = %27
  %42 = load ptr, ptr %17, align 8
  %43 = getelementptr %struct.conversation_element, ptr %42, i64 0
  %44 = getelementptr inbounds nuw %struct.conversation_element, ptr %43, i32 0, i32 1
  call void @clear_address(ptr noundef %44)
  br label %45

45:                                               ; preds = %41, %35
  %46 = load i32, ptr %14, align 4
  %47 = and i32 %46, 16
  %48 = icmp ne i32 %47, 0
  br i1 %48, label %57, label %49

49:                                               ; preds = %45
  %50 = load ptr, ptr %17, align 8
  %51 = getelementptr %struct.conversation_element, ptr %50, i64 1
  %52 = getelementptr inbounds nuw %struct.conversation_element, ptr %51, i32 0, i32 0
  store i32 2, ptr %52, align 8
  %53 = load i32, ptr %12, align 4
  %54 = load ptr, ptr %17, align 8
  %55 = getelementptr %struct.conversation_element, ptr %54, i64 1
  %56 = getelementptr inbounds nuw %struct.conversation_element, ptr %55, i32 0, i32 1
  store i32 %53, ptr %56, align 8
  br label %57

57:                                               ; preds = %49, %45
  %58 = load i32, ptr %14, align 4
  %59 = and i32 %58, 1
  %60 = icmp ne i32 %59, 0
  br i1 %60, label %61, label %70

61:                                               ; preds = %57
  %62 = load i32, ptr %14, align 4
  %63 = and i32 %62, 6
  %64 = icmp ne i32 %63, 0
  br i1 %64, label %65, label %67

65:                                               ; preds = %61
  %66 = load ptr, ptr @conversation_hashtable_no_addr2_or_port2, align 8
  store ptr %66, ptr %15, align 8
  store i64 2, ptr %20, align 8
  br label %69

67:                                               ; preds = %61
  %68 = load ptr, ptr @conversation_hashtable_no_addr2, align 8
  store ptr %68, ptr %15, align 8
  store i64 2, ptr %19, align 8
  store i64 3, ptr %20, align 8
  br label %69

69:                                               ; preds = %67, %65
  br label %86

70:                                               ; preds = %57
  %71 = load i32, ptr %14, align 4
  %72 = and i32 %71, 6
  %73 = icmp ne i32 %72, 0
  br i1 %73, label %74, label %76

74:                                               ; preds = %70
  %75 = load ptr, ptr @conversation_hashtable_no_port2, align 8
  store ptr %75, ptr %15, align 8
  store i64 2, ptr %18, align 8
  store i64 3, ptr %20, align 8
  br label %85

76:                                               ; preds = %70
  %77 = load i32, ptr %14, align 4
  %78 = and i32 %77, 16
  %79 = icmp ne i32 %78, 0
  br i1 %79, label %80, label %82

80:                                               ; preds = %76
  %81 = load ptr, ptr @conversation_hashtable_exact_addr, align 8
  store ptr %81, ptr %15, align 8
  store i64 1, ptr %18, align 8
  store i64 2, ptr %20, align 8
  br label %84

82:                                               ; preds = %76
  %83 = load ptr, ptr @conversation_hashtable_exact_addr_port, align 8
  store ptr %83, ptr %15, align 8
  store i64 2, ptr %18, align 8
  store i64 3, ptr %19, align 8
  store i64 4, ptr %20, align 8
  br label %84

84:                                               ; preds = %82, %80
  br label %85

85:                                               ; preds = %84, %74
  br label %86

86:                                               ; preds = %85, %69
  %87 = load i64, ptr %18, align 8
  %88 = icmp ne i64 %87, 0
  br i1 %88, label %89, label %109

89:                                               ; preds = %86
  %90 = load ptr, ptr %17, align 8
  %91 = load i64, ptr %18, align 8
  %92 = getelementptr %struct.conversation_element, ptr %90, i64 %91
  %93 = getelementptr inbounds nuw %struct.conversation_element, ptr %92, i32 0, i32 0
  store i32 1, ptr %93, align 8
  %94 = load ptr, ptr %10, align 8
  %95 = icmp ne ptr %94, null
  br i1 %95, label %96, label %103

96:                                               ; preds = %89
  %97 = call ptr @wmem_file_scope()
  %98 = load ptr, ptr %17, align 8
  %99 = load i64, ptr %18, align 8
  %100 = getelementptr %struct.conversation_element, ptr %98, i64 %99
  %101 = getelementptr inbounds nuw %struct.conversation_element, ptr %100, i32 0, i32 1
  %102 = load ptr, ptr %10, align 8
  call void @copy_address_wmem(ptr noundef %97, ptr noundef %101, ptr noundef %102)
  br label %108

103:                                              ; preds = %89
  %104 = load ptr, ptr %17, align 8
  %105 = load i64, ptr %18, align 8
  %106 = getelementptr %struct.conversation_element, ptr %104, i64 %105
  %107 = getelementptr inbounds nuw %struct.conversation_element, ptr %106, i32 0, i32 1
  call void @clear_address(ptr noundef %107)
  br label %108

108:                                              ; preds = %103, %96
  br label %109

109:                                              ; preds = %108, %86
  %110 = load i64, ptr %19, align 8
  %111 = icmp ne i64 %110, 0
  br i1 %111, label %112, label %122

112:                                              ; preds = %109
  %113 = load ptr, ptr %17, align 8
  %114 = load i64, ptr %19, align 8
  %115 = getelementptr %struct.conversation_element, ptr %113, i64 %114
  %116 = getelementptr inbounds nuw %struct.conversation_element, ptr %115, i32 0, i32 0
  store i32 2, ptr %116, align 8
  %117 = load i32, ptr %13, align 4
  %118 = load ptr, ptr %17, align 8
  %119 = load i64, ptr %19, align 8
  %120 = getelementptr %struct.conversation_element, ptr %118, i64 %119
  %121 = getelementptr inbounds nuw %struct.conversation_element, ptr %120, i32 0, i32 1
  store i32 %117, ptr %121, align 8
  br label %122

122:                                              ; preds = %112, %109
  %123 = load ptr, ptr %17, align 8
  %124 = load i64, ptr %20, align 8
  %125 = getelementptr %struct.conversation_element, ptr %123, i64 %124
  %126 = getelementptr inbounds nuw %struct.conversation_element, ptr %125, i32 0, i32 0
  store i32 0, ptr %126, align 8
  %127 = load i32, ptr %11, align 4
  %128 = load ptr, ptr %17, align 8
  %129 = load i64, ptr %20, align 8
  %130 = getelementptr %struct.conversation_element, ptr %128, i64 %129
  %131 = getelementptr inbounds nuw %struct.conversation_element, ptr %130, i32 0, i32 1
  store i32 %127, ptr %131, align 8
  %132 = call ptr @wmem_file_scope()
  %133 = call noalias ptr @wmem_alloc0(ptr noundef %132, i64 noundef 72) #16
  store ptr %133, ptr %16, align 8
  %134 = load i32, ptr @new_index, align 4
  %135 = load ptr, ptr %16, align 8
  %136 = getelementptr inbounds nuw %struct.conversation, ptr %135, i32 0, i32 3
  store i32 %134, ptr %136, align 8
  %137 = load i32, ptr %8, align 4
  %138 = load ptr, ptr %16, align 8
  %139 = getelementptr inbounds nuw %struct.conversation, ptr %138, i32 0, i32 5
  store i32 %137, ptr %139, align 8
  %140 = load ptr, ptr %16, align 8
  %141 = getelementptr inbounds nuw %struct.conversation, ptr %140, i32 0, i32 4
  store i32 %137, ptr %141, align 4
  %142 = load i32, ptr %14, align 4
  %143 = load ptr, ptr %16, align 8
  %144 = getelementptr inbounds nuw %struct.conversation, ptr %143, i32 0, i32 8
  store i32 %142, ptr %144, align 8
  %145 = load ptr, ptr %17, align 8
  %146 = load ptr, ptr %16, align 8
  %147 = getelementptr inbounds nuw %struct.conversation, ptr %146, i32 0, i32 9
  store ptr %145, ptr %147, align 8
  %148 = load i32, ptr @new_index, align 4
  %149 = add i32 %148, 1
  store i32 %149, ptr @new_index, align 4
  %150 = load ptr, ptr %15, align 8
  %151 = load ptr, ptr %16, align 8
  call void @conversation_insert_into_hashtable(ptr noundef %150, ptr noundef %151)
  %152 = load ptr, ptr %16, align 8
  call void @llvm.lifetime.end.p0(i64 8, ptr %20) #12
  call void @llvm.lifetime.end.p0(i64 8, ptr %19) #12
  call void @llvm.lifetime.end.p0(i64 8, ptr %18) #12
  call void @llvm.lifetime.end.p0(i64 8, ptr %17) #12
  call void @llvm.lifetime.end.p0(i64 8, ptr %16) #12
  call void @llvm.lifetime.end.p0(i64 8, ptr %15) #12
  ret ptr %152
}