; Function Attrs: null_pointer_is_valid sspstrong uwtable
define noundef ptr @conversation_new(i32 noundef %0, ptr noundef readonly captures(address_is_null) %1, ptr noundef readonly captures(address_is_null) %2, i32 noundef %3, i32 noundef %4, i32 noundef %5, i32 noundef %6) local_unnamed_addr #0 {
  %.not = icmp ult i32 %6, 65536
  br i1 %.not, label %9, label %8

8:                                                ; preds = %7
  tail call void (ptr, ...) @proto_report_dissector_bug(ptr noundef nonnull @.str.3, ptr noundef nonnull @.str.1, i32 noundef 920, ptr noundef nonnull @.str.4, ptr noundef nonnull @.str.5) #16
  unreachable

9:                                                ; preds = %7
  %10 = tail call ptr @wmem_file_scope()
  %11 = tail call noalias dereferenceable_or_null(160) ptr @wmem_alloc(ptr noundef %10, i64 noundef 160) #19
  store i32 1, ptr %11, align 8
  %.not49 = icmp eq ptr %1, null
  br i1 %.not49, label %27, label %12

12:                                               ; preds = %9
  %13 = tail call ptr @wmem_file_scope()
  %14 = getelementptr inbounds nuw i8, ptr %11, i64 8
  %15 = load i32, ptr %1, align 8
  %16 = getelementptr inbounds nuw i8, ptr %1, i64 4
  %17 = load i32, ptr %16, align 4
  %18 = getelementptr inbounds nuw i8, ptr %1, i64 8
  %19 = load ptr, ptr %18, align 8
  tail call void @llvm.memset.p0.i64(ptr noundef nonnull align 8 dereferenceable(24) %14, i8 0, i64 24, i1 false)
  store i32 %15, ptr %14, align 8
  %20 = icmp eq i32 %17, 0
  br i1 %20, label %copy_address_wmem.exit, label %21

21:                                               ; preds = %12
  %22 = sext i32 %17 to i64
  %23 = tail call ptr @wmem_memdup(ptr noundef %13, ptr noundef %19, i64 noundef %22) #18
  %24 = getelementptr inbounds nuw i8, ptr %11, i64 24
  store ptr %23, ptr %24, align 8
  %25 = getelementptr inbounds nuw i8, ptr %11, i64 16
  store ptr %23, ptr %25, align 8
  %26 = getelementptr inbounds nuw i8, ptr %11, i64 12
  store i32 %17, ptr %26, align 4
  br label %copy_address_wmem.exit

27:                                               ; preds = %9
  %28 = getelementptr inbounds nuw i8, ptr %11, i64 8
  tail call void @llvm.memset.p0.i64(ptr noundef nonnull align 8 dereferenceable(24) %28, i8 0, i64 24, i1 false)
  br label %copy_address_wmem.exit

copy_address_wmem.exit:                           ; preds = %21, %12, %27
  %29 = and i32 %6, 16
  %.not50 = icmp ne i32 %29, 0
  br i1 %.not50, label %33, label %30

30:                                               ; preds = %copy_address_wmem.exit
  %31 = getelementptr i8, ptr %11, i64 32
  store i32 2, ptr %31, align 8
  %32 = getelementptr i8, ptr %11, i64 40
  store i32 %4, ptr %32, align 8
  br label %33

33:                                               ; preds = %30, %copy_address_wmem.exit
  %34 = and i32 %6, 1
  %.not51.not = icmp eq i32 %34, 0
  %35 = and i32 %6, 6
  %.not52 = icmp eq i32 %35, 0
  br i1 %.not51.not, label %36, label %37

36:                                               ; preds = %33
  br i1 %.not52, label %38, label %.thread84

37:                                               ; preds = %33
  %conversation_hashtable_no_addr2.val = load ptr, ptr @conversation_hashtable_no_addr2, align 8
  %conversation_hashtable_no_addr2_or_port2.val = load ptr, ptr @conversation_hashtable_no_addr2_or_port2, align 8
  br i1 %.not52, label %60, label %63

38:                                               ; preds = %36
  %.59 = select i1 %.not50, i64 1, i64 2
  %.61 = select i1 %.not50, i64 0, i64 3
  %.62 = select i1 %.not50, i64 2, i64 4
  %conversation_hashtable_exact_addr.val = load ptr, ptr @conversation_hashtable_exact_addr, align 8
  %conversation_hashtable_exact_addr_port.val = load ptr, ptr @conversation_hashtable_exact_addr_port, align 8
  %.04669 = select i1 %.not50, ptr %conversation_hashtable_exact_addr.val, ptr %conversation_hashtable_exact_addr_port.val
  %39 = getelementptr %struct.conversation_element, ptr %11, i64 %.59
  store i32 1, ptr %39, align 8
  %.not55 = icmp eq ptr %2, null
  br i1 %.not55, label %58, label %42

.thread84:                                        ; preds = %36
  %.0466990 = load ptr, ptr @conversation_hashtable_no_port2, align 8
  %40 = getelementptr i8, ptr %11, i64 64
  store i32 1, ptr %40, align 8
  %.not5591 = icmp eq ptr %2, null
  br i1 %.not5591, label %.thread100, label %42

.thread100:                                       ; preds = %.thread84
  %41 = getelementptr i8, ptr %11, i64 72
  tail call void @llvm.memset.p0.i64(ptr noundef nonnull align 8 dereferenceable(24) %41, i8 0, i64 24, i1 false)
  br label %63

42:                                               ; preds = %.thread84, %38
  %43 = phi ptr [ %40, %.thread84 ], [ %39, %38 ]
  %.0466998 = phi ptr [ %.0466990, %.thread84 ], [ %.04669, %38 ]
  %.0.ph96 = phi i64 [ 3, %.thread84 ], [ %.62, %38 ]
  %.044.ph94 = phi i64 [ 0, %.thread84 ], [ %.61, %38 ]
  %.not56.ph93 = phi i1 [ true, %.thread84 ], [ %.not50, %38 ]
  %44 = tail call ptr @wmem_file_scope()
  %45 = getelementptr inbounds nuw i8, ptr %43, i64 8
  %46 = load i32, ptr %2, align 8
  %47 = getelementptr inbounds nuw i8, ptr %2, i64 4
  %48 = load i32, ptr %47, align 4
  %49 = getelementptr inbounds nuw i8, ptr %2, i64 8
  %50 = load ptr, ptr %49, align 8
  tail call void @llvm.memset.p0.i64(ptr noundef nonnull align 8 dereferenceable(24) %45, i8 0, i64 24, i1 false)
  store i32 %46, ptr %45, align 8
  %51 = icmp eq i32 %48, 0
  br i1 %51, label %copy_address_wmem.exit63, label %52

52:                                               ; preds = %42
  %53 = sext i32 %48 to i64
  %54 = tail call ptr @wmem_memdup(ptr noundef %44, ptr noundef %50, i64 noundef %53) #18
  %55 = getelementptr inbounds nuw i8, ptr %43, i64 24
  store ptr %54, ptr %55, align 8
  %56 = getelementptr inbounds nuw i8, ptr %43, i64 16
  store ptr %54, ptr %56, align 8
  %57 = getelementptr inbounds nuw i8, ptr %43, i64 12
  store i32 %48, ptr %57, align 4
  br i1 %.not56.ph93, label %63, label %60

58:                                               ; preds = %38
  %59 = getelementptr inbounds nuw i8, ptr %39, i64 8
  tail call void @llvm.memset.p0.i64(ptr noundef nonnull align 8 dereferenceable(24) %59, i8 0, i64 24, i1 false)
  br i1 %.not50, label %63, label %60

copy_address_wmem.exit63:                         ; preds = %42
  br i1 %.not56.ph93, label %63, label %60

60:                                               ; preds = %52, %37, %58, %copy_address_wmem.exit63
  %.0447383 = phi i64 [ 3, %58 ], [ %.044.ph94, %copy_address_wmem.exit63 ], [ 2, %37 ], [ %.044.ph94, %52 ]
  %.07581 = phi i64 [ 4, %58 ], [ %.0.ph96, %copy_address_wmem.exit63 ], [ 3, %37 ], [ %.0.ph96, %52 ]
  %.0467779 = phi ptr [ %conversation_hashtable_exact_addr_port.val, %58 ], [ %.0466998, %copy_address_wmem.exit63 ], [ %conversation_hashtable_no_addr2.val, %37 ], [ %.0466998, %52 ]
  %61 = getelementptr %struct.conversation_element, ptr %11, i64 %.0447383
  store i32 2, ptr %61, align 8
  %62 = getelementptr inbounds nuw i8, ptr %61, i64 8
  store i32 %5, ptr %62, align 8
  br label %63

63:                                               ; preds = %.thread100, %52, %37, %58, %60, %copy_address_wmem.exit63
  %.07582 = phi i64 [ 2, %58 ], [ %.07581, %60 ], [ %.0.ph96, %copy_address_wmem.exit63 ], [ 2, %37 ], [ %.0.ph96, %52 ], [ 3, %.thread100 ]
  %.0467780 = phi ptr [ %conversation_hashtable_exact_addr.val, %58 ], [ %.0467779, %60 ], [ %.0466998, %copy_address_wmem.exit63 ], [ %conversation_hashtable_no_addr2_or_port2.val, %37 ], [ %.0466998, %52 ], [ %.0466990, %.thread100 ]
  %64 = getelementptr %struct.conversation_element, ptr %11, i64 %.07582
  store i32 0, ptr %64, align 8
  %65 = getelementptr inbounds nuw i8, ptr %64, i64 8
  store i32 %3, ptr %65, align 8
  %66 = tail call ptr @wmem_file_scope()
  %67 = tail call noalias dereferenceable_or_null(72) ptr @wmem_alloc0(ptr noundef %66, i64 noundef 72) #19
  %68 = load i32, ptr @new_index, align 4
  %69 = getelementptr inbounds nuw i8, ptr %67, i64 24
  store i32 %68, ptr %69, align 8
  %70 = getelementptr inbounds nuw i8, ptr %67, i64 32
  store i32 %0, ptr %70, align 8
  %71 = getelementptr inbounds nuw i8, ptr %67, i64 28
  store i32 %0, ptr %71, align 4
  %72 = getelementptr inbounds nuw i8, ptr %67, i64 56
  store i32 %6, ptr %72, align 8
  %73 = getelementptr inbounds nuw i8, ptr %67, i64 64
  store ptr %11, ptr %73, align 8
  %74 = add i32 %68, 1
  store i32 %74, ptr @new_index, align 4
  tail call fastcc void @conversation_insert_into_hashtable(ptr noundef %.0467780, ptr noundef %67)
  ret ptr %67
}